target datalayout = "e-m:e-p270:32:32-p271:32:32-p272:64:64-i64:64-i128:128-f80:128-n8:16:32:64-S128"
target triple = "x86_64-pc-linux-gnu"

@.str = private unnamed_addr constant [34 x i8] c"../openssl/crypto/asn1/a_object.c\00", align 1
@__func__.d2i_ASN1_OBJECT = private unnamed_addr constant [16 x i8] c"d2i_ASN1_OBJECT\00", align 1

; Function Attrs: nounwind uwtable
define ptr @d2i_ASN1_OBJECT(ptr noundef %0, ptr noundef %1, i64 noundef %2) #0 {
  %4 = alloca ptr, align 8
  %5 = alloca ptr, align 8
  %6 = alloca ptr, align 8
  %7 = alloca i64, align 8
  %8 = alloca ptr, align 8
  %9 = alloca i64, align 8
  %10 = alloca i32, align 4
  %11 = alloca i32, align 4
  %12 = alloca i32, align 4
  %13 = alloca i32, align 4
  %14 = alloca ptr, align 8
  %15 = alloca i32, align 4
  store ptr %0, ptr %5, align 8, !tbaa !27
  store ptr %1, ptr %6, align 8, !tbaa !8
  store i64 %2, ptr %7, align 8, !tbaa !20
  call void @llvm.lifetime.start.p0(i64 8, ptr %8) #5
  call void @llvm.lifetime.start.p0(i64 8, ptr %9) #5
  call void @llvm.lifetime.start.p0(i64 4, ptr %10) #5
  call void @llvm.lifetime.start.p0(i64 4, ptr %11) #5
  call void @llvm.lifetime.start.p0(i64 4, ptr %12) #5
  call void @llvm.lifetime.start.p0(i64 4, ptr %13) #5
  call void @llvm.lifetime.start.p0(i64 8, ptr %14) #5
  store ptr null, ptr %14, align 8, !tbaa !3
  %16 = load ptr, ptr %6, align 8, !tbaa !8
  %17 = load ptr, ptr %16, align 8, !tbaa !10
  store ptr %17, ptr %8, align 8, !tbaa !10
  %18 = load i64, ptr %7, align 8, !tbaa !20
  %19 = call i32 @ASN1_get_object(ptr noundef %8, ptr noundef %9, ptr noundef %10, ptr noundef %11, i64 noundef %18)
  store i32 %19, ptr %12, align 4, !tbaa !16
  %20 = load i32, ptr %12, align 4, !tbaa !16
  %21 = and i32 %20, 128
  %22 = icmp ne i32 %21, 0
  br i1 %22, label %23, label %24

23:                                               ; preds = %3
  store i32 102, ptr %13, align 4, !tbaa !16
  br label %39

24:                                               ; preds = %3
  %25 = load i32, ptr %10, align 4, !tbaa !16
  %26 = icmp ne i32 %25, 6
  br i1 %26, label %27, label %28

27:                                               ; preds = %24
  store i32 116, ptr %13, align 4, !tbaa !16
  br label %39

28:                                               ; preds = %24
  %29 = load ptr, ptr %5, align 8, !tbaa !27
  %30 = load i64, ptr %9, align 8, !tbaa !20
  %31 = call ptr @ossl_c2i_ASN1_OBJECT(ptr noundef %29, ptr noundef %8, i64 noundef %30)
  store ptr %31, ptr %14, align 8, !tbaa !3
  %32 = load ptr, ptr %14, align 8, !tbaa !3
  %33 = icmp ne ptr %32, null
  br i1 %33, label %34, label %37

34:                                               ; preds = %28
  %35 = load ptr, ptr %8, align 8, !tbaa !10
  %36 = load ptr, ptr %6, align 8, !tbaa !8
  store ptr %35, ptr %36, align 8, !tbaa !10
  br label %37

37:                                               ; preds = %34, %28
  %38 = load ptr, ptr %14, align 8, !tbaa !3
  store ptr %38, ptr %4, align 8
  store i32 1, ptr %15, align 4
  br label %41

39:                                               ; preds = %27, %23
  call void @ERR_new()
  call void @ERR_set_debug(ptr noundef @.str, i32 noundef 235, ptr noundef @__func__.d2i_ASN1_OBJECT)
  %40 = load i32, ptr %13, align 4, !tbaa !16
  call void (i32, i32, ptr, ...) @ERR_set_error(i32 noundef 13, i32 noundef %40, ptr noundef null)
  store ptr null, ptr %4, align 8
  store i32 1, ptr %15, align 4
  br label %41

41:                                               ; preds = %39, %37
  call void @llvm.lifetime.end.p0(i64 8, ptr %14) #5
  call void @llvm.lifetime.end.p0(i64 4, ptr %13) #5
  call void @llvm.lifetime.end.p0(i64 4, ptr %12) #5
  call void @llvm.lifetime.end.p0(i64 4, ptr %11) #5
  call void @llvm.lifetime.end.p0(i64 4, ptr %10) #5
  call void @llvm.lifetime.end.p0(i64 8, ptr %9) #5
  call void @llvm.lifetime.end.p0(i64 8, ptr %8) #5
  %42 = load ptr, ptr %4, align 8
  ret ptr %42
}