; Function Attrs: nounwind uwtable
define ptr @d2i_ASN1_OBJECT(ptr noundef captures(address_is_null) %0, ptr noundef captures(none) %1, i64 noundef %2) local_unnamed_addr #0 {
  %4 = alloca ptr, align 8
  %5 = alloca i64, align 8
  %6 = alloca i32, align 4
  %7 = alloca i32, align 4
  call void @llvm.lifetime.start.p0(i64 8, ptr nonnull %4) #6
  call void @llvm.lifetime.start.p0(i64 8, ptr nonnull %5) #6
  call void @llvm.lifetime.start.p0(i64 4, ptr nonnull %6) #6
  call void @llvm.lifetime.start.p0(i64 4, ptr nonnull %7) #6
  %8 = load ptr, ptr %1, align 8, !tbaa !11
  store ptr %8, ptr %4, align 8, !tbaa !11
  %9 = call i32 @ASN1_get_object(ptr noundef nonnull %4, ptr noundef nonnull %5, ptr noundef nonnull %6, ptr noundef nonnull %7, i64 noundef %2) #6
  %10 = and i32 %9, 128
  %.not = icmp eq i32 %10, 0
  br i1 %.not, label %11, label %18

11:                                               ; preds = %3
  %12 = load i32, ptr %6, align 4, !tbaa !16
  %.not9 = icmp eq i32 %12, 6
  br i1 %.not9, label %13, label %18

13:                                               ; preds = %11
  %14 = load i64, ptr %5, align 8, !tbaa !17
  %15 = call ptr @ossl_c2i_ASN1_OBJECT(ptr noundef %0, ptr noundef nonnull %4, i64 noundef %14)
  %.not10 = icmp eq ptr %15, null
  br i1 %.not10, label %19, label %16

16:                                               ; preds = %13
  %17 = load ptr, ptr %4, align 8, !tbaa !11
  store ptr %17, ptr %1, align 8, !tbaa !11
  br label %19

18:                                               ; preds = %11, %3
  %.0 = phi i32 [ 102, %3 ], [ 116, %11 ]
  call void @ERR_new() #6
  call void @ERR_set_debug(ptr noundef nonnull @.str, i32 noundef 235, ptr noundef nonnull @__func__.d2i_ASN1_OBJECT) #6
  call void (i32, i32, ptr, ...) @ERR_set_error(i32 noundef 13, i32 noundef %.0, ptr noundef null) #6
  br label %19

19:                                               ; preds = %13, %16, %18
  %.08 = phi ptr [ null, %18 ], [ %15, %16 ], [ null, %13 ]
  call void @llvm.lifetime.end.p0(i64 4, ptr nonnull %7) #6
  call void @llvm.lifetime.end.p0(i64 4, ptr nonnull %6) #6
  call void @llvm.lifetime.end.p0(i64 8, ptr nonnull %5) #6
  call void @llvm.lifetime.end.p0(i64 8, ptr nonnull %4) #6
  ret ptr %.08
}